; Function Attrs: mustprogress nounwind uwtable
define internal fastcc void @_ZN6hermes12_GLOBAL__N_15GenJS5visitEPNS_6ESTree15CatchClauseNodeE(ptr noundef nonnull align 8 captures(none) dereferenceable(16) %this, ptr noundef readonly captures(none) %node) unnamed_addr #0 align 2 {
entry:
  %0 = getelementptr inbounds nuw i8, ptr %this, i64 8
  %this.val7 = load i8, ptr %0, align 8
  %tobool2.i = trunc i8 %this.val7 to i1
  br i1 %tobool2.i, label %if.then.i, label %_ZN6hermes12_GLOBAL__N_15GenJS5spaceEb.exit

if.then.i:                                        ; preds = %entry
  %this.val6 = load ptr, ptr %this, align 8
  %call.i = tail call noundef nonnull align 8 dereferenceable(36) ptr @_ZN4llvh11raw_ostream5writeEh(ptr noundef nonnull align 8 dereferenceable(36) %this.val6, i8 noundef zeroext 32) #12
  br label %_ZN6hermes12_GLOBAL__N_15GenJS5spaceEb.exit

_ZN6hermes12_GLOBAL__N_15GenJS5spaceEb.exit:      ; preds = %entry, %if.then.i
  %1 = load ptr, ptr %this, align 8
  %OutBufEnd.i5.i = getelementptr inbounds nuw i8, ptr %1, i64 16
  %2 = load ptr, ptr %OutBufEnd.i5.i, align 8
  %OutBufCur.i6.i = getelementptr inbounds nuw i8, ptr %1, i64 24
  %3 = load ptr, ptr %OutBufCur.i6.i, align 8
  %sub.ptr.lhs.cast.i7.i = ptrtoint ptr %2 to i64
  %sub.ptr.rhs.cast.i8.i = ptrtoint ptr %3 to i64
  %sub.ptr.sub.i9.i = sub i64 %sub.ptr.lhs.cast.i7.i, %sub.ptr.rhs.cast.i8.i
  %cmp.i.i = icmp ult i64 %sub.ptr.sub.i9.i, 5
  br i1 %cmp.i.i, label %if.then.i.i, label %if.then4.i.i

if.then.i.i:                                      ; preds = %_ZN6hermes12_GLOBAL__N_15GenJS5spaceEb.exit
  %call3.i.i = tail call noundef nonnull align 8 dereferenceable(36) ptr @_ZN4llvh11raw_ostream5writeEPKcm(ptr noundef nonnull align 8 dereferenceable(36) %1, ptr noundef nonnull @.str.307, i64 noundef 5) #12
  br label %_ZN4llvh11raw_ostreamlsEPKc.exit

if.then4.i.i:                                     ; preds = %_ZN6hermes12_GLOBAL__N_15GenJS5spaceEb.exit
  tail call void @llvm.memcpy.p0.p0.i64(ptr noundef nonnull align 1 dereferenceable(5) %3, ptr noundef nonnull align 1 dereferenceable(5) @.str.307, i64 5, i1 false)
  %4 = load ptr, ptr %OutBufCur.i6.i, align 8
  %add.ptr.i.i = getelementptr inbounds nuw i8, ptr %4, i64 5
  store ptr %add.ptr.i.i, ptr %OutBufCur.i6.i, align 8
  br label %_ZN4llvh11raw_ostreamlsEPKc.exit

_ZN4llvh11raw_ostreamlsEPKc.exit:                 ; preds = %if.then.i.i, %if.then4.i.i
  %_param = getelementptr inbounds nuw i8, ptr %node, i64 48
  %5 = load ptr, ptr %_param, align 8
  %tobool.not = icmp eq ptr %5, null
  br i1 %tobool.not, label %if.end, label %if.then

if.then:                                          ; preds = %_ZN4llvh11raw_ostreamlsEPKc.exit
  %this.val5 = load i8, ptr %0, align 8
  %tobool2.i8 = trunc i8 %this.val5 to i1
  br i1 %tobool2.i8, label %if.then.i9, label %_ZN6hermes12_GLOBAL__N_15GenJS5spaceEb.exit11

if.then.i9:                                       ; preds = %if.then
  %this.val = load ptr, ptr %this, align 8
  %call.i10 = tail call noundef nonnull align 8 dereferenceable(36) ptr @_ZN4llvh11raw_ostream5writeEh(ptr noundef nonnull align 8 dereferenceable(36) %this.val, i8 noundef zeroext 32) #12
  br label %_ZN6hermes12_GLOBAL__N_15GenJS5spaceEb.exit11

_ZN6hermes12_GLOBAL__N_15GenJS5spaceEb.exit11:    ; preds = %if.then, %if.then.i9
  %6 = load ptr, ptr %this, align 8
  %OutBufCur.i = getelementptr inbounds nuw i8, ptr %6, i64 24
  %7 = load ptr, ptr %OutBufCur.i, align 8
  %OutBufEnd.i = getelementptr inbounds nuw i8, ptr %6, i64 16
  %8 = load ptr, ptr %OutBufEnd.i, align 8
  %cmp.not.i = icmp ult ptr %7, %8
  br i1 %cmp.not.i, label %if.end.i, label %if.then.i12

if.then.i12:                                      ; preds = %_ZN6hermes12_GLOBAL__N_15GenJS5spaceEb.exit11
  %call.i13 = tail call noundef nonnull align 8 dereferenceable(36) ptr @_ZN4llvh11raw_ostream5writeEh(ptr noundef nonnull align 8 dereferenceable(36) %6, i8 noundef zeroext 40) #12
  br label %_ZN4llvh11raw_ostreamlsEc.exit

if.end.i:                                         ; preds = %_ZN6hermes12_GLOBAL__N_15GenJS5spaceEb.exit11
  %incdec.ptr.i = getelementptr inbounds nuw i8, ptr %7, i64 1
  store ptr %incdec.ptr.i, ptr %OutBufCur.i, align 8
  store i8 40, ptr %7, align 1
  br label %_ZN4llvh11raw_ostreamlsEc.exit

_ZN4llvh11raw_ostreamlsEc.exit:                   ; preds = %if.then.i12, %if.end.i
  %9 = load ptr, ptr %_param, align 8
  tail call fastcc void @_ZN6hermes6ESTree24RecursiveVisitorDispatchINS_12_GLOBAL__N_15GenJSELb1EE5visitERS3_PNS0_4NodeES7_(ptr noundef nonnull align 8 dereferenceable(16) %this, ptr noundef %9)
  %10 = load ptr, ptr %this, align 8
  %OutBufCur.i15 = getelementptr inbounds nuw i8, ptr %10, i64 24
  %11 = load ptr, ptr %OutBufCur.i15, align 8
  %OutBufEnd.i16 = getelementptr inbounds nuw i8, ptr %10, i64 16
  %12 = load ptr, ptr %OutBufEnd.i16, align 8
  %cmp.not.i17 = icmp ult ptr %11, %12
  br i1 %cmp.not.i17, label %if.end.i21, label %if.then.i18

if.then.i18:                                      ; preds = %_ZN4llvh11raw_ostreamlsEc.exit
  %call.i19 = tail call noundef nonnull align 8 dereferenceable(36) ptr @_ZN4llvh11raw_ostream5writeEh(ptr noundef nonnull align 8 dereferenceable(36) %10, i8 noundef zeroext 41) #12
  br label %if.end

if.end.i21:                                       ; preds = %_ZN4llvh11raw_ostreamlsEc.exit
  %incdec.ptr.i22 = getelementptr inbounds nuw i8, ptr %11, i64 1
  store ptr %incdec.ptr.i22, ptr %OutBufCur.i15, align 8
  store i8 41, ptr %11, align 1
  br label %if.end

if.end:                                           ; preds = %if.end.i21, %if.then.i18, %_ZN4llvh11raw_ostreamlsEPKc.exit
  %_body = getelementptr inbounds nuw i8, ptr %node, i64 56
  %13 = load ptr, ptr %_body, align 8
  %14 = tail call fastcc noundef zeroext i1 @_ZN6hermes12_GLOBAL__N_15GenJS16visitStmtOrBlockEPNS_6ESTree4NodeEbS4_(ptr noundef nonnull align 8 dereferenceable(16) %this, ptr noundef %13, i1 noundef zeroext true)
  ret void
}